 Project5

 Timestamp is 60a0f26a (Sun May 16 18:22:34 2021)

 Preferred load address is 00400000

 Start         Length     Name                   Class
 0001:00000000 00002690H .text                   CODE
 0001:00002690 000011ccH .text$mn                CODE
 0002:00000000 00000144H .rdata                  DATA
 0002:00000143 00000000H .edata                  DATA
 0002:00000144 000001a8H .rdata$zzzdbg           DATA
 0003:00000000 00000cb0H .data                   DATA
 0003:00000cb0 000002f2H .bss                    DATA
 0004:00000000 000000d8H .idata$5                DATA
 0004:000000d8 00000028H .idata$2                DATA
 0004:00000100 00000014H .idata$3                DATA
 0004:00000114 000000d8H .idata$4                DATA
 0004:000001ec 00000347H .idata$6                DATA
 0005:00000000 00000170H .rsrc$01                DATA
 0005:00000170 000002ccH .rsrc$02                DATA

  Address         Publics by Value              Rva+Base       Lib:Object

 0000:00000000       ___hybrid_auxiliary_iat_copy 00000000     <absolute>
 0000:00000000       ___guard_fids_table        00000000     <absolute>
 0000:00000000       ___enclave_config          00000000     <absolute>
 0000:00000000       ___arm64x_redirection_metadata_count 00000000     <absolute>
 0000:00000000       ___guard_check_icall_a64n_fptr 00000000     <absolute>
 0000:00000000       ___guard_longjmp_count     00000000     <absolute>
 0000:00000000       ___safe_se_handler_count   00000000     <absolute>
 0000:00000000       ___guard_iat_table         00000000     <absolute>
 0000:00000000       ___x64_code_ranges_to_entry_points_count 00000000     <absolute>
 0000:00000000       ___guard_iat_count         00000000     <absolute>
 0000:00000000       ___guard_eh_cont_table     00000000     <absolute>
 0000:00000000       ___guard_fids_count        00000000     <absolute>
 0000:00000000       ___AbsoluteZero            00000000     <absolute>
 0000:00000000       ___guard_flags             00000000     <absolute>
 0000:00000000       ___safe_se_handler_table   00000000     <absolute>
 0000:00000000       ___arm64x_native_entrypoint 00000000     <absolute>
 0000:00000000       ___guard_longjmp_table     00000000     <absolute>
 0000:00000000       ___dynamic_value_reloc_table 00000000     <absolute>
 0000:00000000       ___volatile_metadata       00000000     <absolute>
 0000:00000000       ___hybrid_auxiliary_iat    00000000     <absolute>
 0000:00000000       ___arm64x_extra_rfe_table  00000000     <absolute>
 0000:00000000       ___arm64x_redirection_metadata 00000000     <absolute>
 0000:00000000       ___guard_eh_cont_count     00000000     <absolute>
 0000:00000000       ___hybrid_code_map_count   00000000     <absolute>
 0000:00000000       ___x64_code_ranges_to_entry_points 00000000     <absolute>
 0000:00000000       ___hybrid_code_map         00000000     <absolute>
 0000:00000000       ___arm64x_extra_rfe_table_size 00000000     <absolute>
 0001:00000230       _CloseFile@0               00401230 f   Irvine32:Irvine32.obj
 0001:00000237       _Clrscr@0                  00401237 f   Irvine32:Irvine32.obj
 0001:000002fc       _CreateOutputFile@0        004012fc f   Irvine32:Irvine32.obj
 0001:00000315       _Crlf@0                    00401315 f   Irvine32:Irvine32.obj
 0001:00000330       _Delay@0                   00401330 f   Irvine32:Irvine32.obj
 0001:00000339       _DumpMem@0                 00401339 f   Irvine32:Irvine32.obj
 0001:000003f4       _DumpRegs@0                004013f4 f   Irvine32:Irvine32.obj
 0001:000005ef       _GetCommandTail@0          004015ef f   Irvine32:Irvine32.obj
 0001:0000062c       _GetDateTime@4             0040162c f   Irvine32:Irvine32.obj
 0001:0000065e       _GetMaxXY@0                0040165e f   Irvine32:Irvine32.obj
 0001:0000068d       _GetMseconds@0             0040168d f   Irvine32:Irvine32.obj
 0001:000006ea       _GetTextColor@0            004016ea f   Irvine32:Irvine32.obj
 0001:00000715       _Gotoxy@0                  00401715 f   Irvine32:Irvine32.obj
 0001:0000076d       _IsDigit@0                 0040176d f   Irvine32:Irvine32.obj
 0001:0000077a       _MsgBox@0                  0040177a f   Irvine32:Irvine32.obj
 0001:00000791       _MsgBoxAsk@0               00401791 f   Irvine32:Irvine32.obj
 0001:000007b0       _OpenInputFile@0           004017b0 f   Irvine32:Irvine32.obj
 0001:000007c9       _ParseDecimal32@0          004017c9 f   Irvine32:Irvine32.obj
 0001:0000082b       _ParseInteger32@0          0040182b f   Irvine32:Irvine32.obj
 0001:000008e6       _Random32@0                004018e6 f   Irvine32:Irvine32.obj
 0001:00000901       _RandomRange@0             00401901 f   Irvine32:Irvine32.obj
 0001:00000916       _Randomize@0               00401916 f   Irvine32:Irvine32.obj
 0001:0000092f       _ReadChar@0                0040192f f   Irvine32:Irvine32.obj
 0001:00000945       _ReadDec@0                 00401945 f   Irvine32:Irvine32.obj
 0001:00000960       _ReadFromFile@0            00401960 f   Irvine32:Irvine32.obj
 0001:00000983       _ReadHex@0                 00401983 f   Irvine32:Irvine32.obj
 0001:00000a04       _ReadInt@0                 00401a04 f   Irvine32:Irvine32.obj
 0001:00000a1f       _ReadKey@0                 00401a1f f   Irvine32:Irvine32.obj
 0001:00000b3a       _ReadKeyFlush@0            00401b3a f   Irvine32:Irvine32.obj
 0001:00000c08       _ReadString@0              00401c08 f   Irvine32:Irvine32.obj
 0001:00000cc1       _SetTextColor@0            00401cc1 f   Irvine32:Irvine32.obj
 0001:00000ce2       _StrLength@0               00401ce2 f   Irvine32:Irvine32.obj
 0001:00000cf3       _Str_compare@8             00401cf3 f   Irvine32:Irvine32.obj
 0001:00000d1d       _Str_copy@8                00401d1d f   Irvine32:Irvine32.obj
 0001:00000d40       _Str_length@4              00401d40 f   Irvine32:Irvine32.obj
 0001:00000d5a       _Str_trim@8                00401d5a f   Irvine32:Irvine32.obj
 0001:00000d88       _Str_ucase@4               00401d88 f   Irvine32:Irvine32.obj
 0001:00000daa       _WaitMsg@0                 00401daa f   Irvine32:Irvine32.obj
 0001:00000dbc       _WriteBin@0                00401dbc f   Irvine32:Irvine32.obj
 0001:00000dc9       _WriteBinB@0               00401dc9 f   Irvine32:Irvine32.obj
 0001:00000e1c       _WriteChar@0               00401e1c f   Irvine32:Irvine32.obj
 0001:00000e4e       _WriteDec@0                00401e4e f   Irvine32:Irvine32.obj
 0001:00000e8f       _WriteHex@0                00401e8f f   Irvine32:Irvine32.obj
 0001:00000e9c       _WriteHexB@0               00401e9c f   Irvine32:Irvine32.obj
 0001:00000f2e       _WriteInt@0                00401f2e f   Irvine32:Irvine32.obj
 0001:00000f8f       _WriteStackFrameName@16    00401f8f f   Irvine32:Irvine32.obj
 0001:0000110f       _WriteStackFrame@12        0040210f f   Irvine32:Irvine32.obj
 0001:00001129       _WriteString@0             00402129 f   Irvine32:Irvine32.obj
 0001:00001155       _WriteToFile@0             00402155 f   Irvine32:Irvine32.obj
 0001:0000116a       _WriteWindowsMsg@0         0040216a f   Irvine32:Irvine32.obj
 0001:00002690       _main@0                    00403690 f   4108056041날창ㅵ-hw5.obj
 0001:000026bf       _InputTheString@0          004036bf f   4108056041날창ㅵ-hw5.obj
 0001:000026e5       _InputTheKey@0             004036e5 f   4108056041날창ㅵ-hw5.obj
 0001:0000270b       _TranslateBuffer@0         0040370b f   4108056041날창ㅵ-hw5.obj
 0001:00002742       _DisplayMessage@0          00403742 f   4108056041날창ㅵ-hw5.obj
 0001:00002791       _ExitProcess@4             00403791 f   kernel32:KERNEL32.dll
 0001:00002797       _CloseHandle@4             00403797 f   kernel32:KERNEL32.dll
 0001:0000279d       _CreateFileA@28            0040379d f   kernel32:KERNEL32.dll
 0001:000027a3       _FormatMessageA@28         004037a3 f   kernel32:KERNEL32.dll
 0001:000027a9       _FlushConsoleInputBuffer@4 004037a9 f   kernel32:KERNEL32.dll
 0001:000027af       _GetCommandLineA@0         004037af f   kernel32:KERNEL32.dll
 0001:000027b5       _GetConsoleMode@8          004037b5 f   kernel32:KERNEL32.dll
 0001:000027bb       _GetConsoleScreenBufferInfo@8 004037bb f   kernel32:KERNEL32.dll
 0001:000027c1       _GetLastError@0            004037c1 f   kernel32:KERNEL32.dll
 0001:000027c7       _GetLocalTime@4            004037c7 f   kernel32:KERNEL32.dll
 0001:000027cd       _GetStdHandle@4            004037cd f   kernel32:KERNEL32.dll
 0001:000027d3       _GetSystemTime@4           004037d3 f   kernel32:KERNEL32.dll
 0001:000027d9       _LocalFree@4               004037d9 f   kernel32:KERNEL32.dll
 0001:000027df       _PeekConsoleInputA@16      004037df f   kernel32:KERNEL32.dll
 0001:000027e5       _ReadConsoleA@20           004037e5 f   kernel32:KERNEL32.dll
 0001:000027eb       _ReadConsoleInputA@16      004037eb f   kernel32:KERNEL32.dll
 0001:000027f1       _ReadFile@20               004037f1 f   kernel32:KERNEL32.dll
 0001:000027f7       _SetConsoleCursorPosition@8 004037f7 f   kernel32:KERNEL32.dll
 0001:000027fd       _SetConsoleMode@8          004037fd f   kernel32:KERNEL32.dll
 0001:00002803       _SetConsoleTextAttribute@8 00403803 f   kernel32:KERNEL32.dll
 0001:00002809       _Sleep@4                   00403809 f   kernel32:KERNEL32.dll
 0001:0000280f       _SystemTimeToFileTime@8    0040380f f   kernel32:KERNEL32.dll
 0001:00002815       _WriteConsoleA@20          00403815 f   kernel32:KERNEL32.dll
 0001:0000281b       _WriteConsoleOutputCharacterA@20 0040381b f   kernel32:KERNEL32.dll
 0001:00002821       _WriteConsoleOutputAttribute@20 00403821 f   kernel32:KERNEL32.dll
 0001:00002827       _WriteFile@20              00403827 f   kernel32:KERNEL32.dll
 0001:0000282d       _MessageBoxA@16            0040382d f   user32:USER32.dll
 0004:00000000       __imp__ExitProcess@4       00407000     kernel32:KERNEL32.dll
 0004:00000004       __imp__CloseHandle@4       00407004     kernel32:KERNEL32.dll
 0004:00000008       __imp__CreateFileA@28      00407008     kernel32:KERNEL32.dll
 0004:0000000c       __imp__FormatMessageA@28   0040700c     kernel32:KERNEL32.dll
 0004:00000010       __imp__FlushConsoleInputBuffer@4 00407010     kernel32:KERNEL32.dll
 0004:00000014       __imp__GetCommandLineA@0   00407014     kernel32:KERNEL32.dll
 0004:00000018       __imp__GetConsoleMode@8    00407018     kernel32:KERNEL32.dll
 0004:0000001c       __imp__GetConsoleScreenBufferInfo@8 0040701c     kernel32:KERNEL32.dll
 0004:00000020       __imp__GetLastError@0      00407020     kernel32:KERNEL32.dll
 0004:00000024       __imp__GetLocalTime@4      00407024     kernel32:KERNEL32.dll
 0004:00000028       __imp__GetStdHandle@4      00407028     kernel32:KERNEL32.dll
 0004:0000002c       __imp__GetSystemTime@4     0040702c     kernel32:KERNEL32.dll
 0004:00000030       __imp__LocalFree@4         00407030     kernel32:KERNEL32.dll
 0004:00000034       __imp__PeekConsoleInputA@16 00407034     kernel32:KERNEL32.dll
 0004:00000038       __imp__ReadConsoleA@20     00407038     kernel32:KERNEL32.dll
 0004:0000003c       __imp__ReadConsoleInputA@16 0040703c     kernel32:KERNEL32.dll
 0004:00000040       __imp__ReadFile@20         00407040     kernel32:KERNEL32.dll
 0004:00000044       __imp__SetConsoleCursorPosition@8 00407044     kernel32:KERNEL32.dll
 0004:00000048       __imp__SetConsoleMode@8    00407048     kernel32:KERNEL32.dll
 0004:0000004c       __imp__SetConsoleTextAttribute@8 0040704c     kernel32:KERNEL32.dll
 0004:00000050       __imp__Sleep@4             00407050     kernel32:KERNEL32.dll
 0004:00000054       __imp__SystemTimeToFileTime@8 00407054     kernel32:KERNEL32.dll
 0004:00000058       __imp__WriteConsoleA@20    00407058     kernel32:KERNEL32.dll
 0004:0000005c       __imp__WriteConsoleOutputCharacterA@20 0040705c     kernel32:KERNEL32.dll
 0004:00000060       __imp__WriteConsoleOutputAttribute@20 00407060     kernel32:KERNEL32.dll
 0004:00000064       __imp__WriteFile@20        00407064     kernel32:KERNEL32.dll
 0004:00000068       \177KERNEL32_NULL_THUNK_DATA 00407068     kernel32:KERNEL32.dll
 0004:000000a8       __imp__MessageBoxA@16      004070a8     user32:USER32.dll
 0004:000000ac       \177USER32_NULL_THUNK_DATA 004070ac     user32:USER32.dll
 0004:000000d8       __IMPORT_DESCRIPTOR_KERNEL32 004070d8     kernel32:KERNEL32.dll
 0004:000000ec       __IMPORT_DESCRIPTOR_USER32 004070ec     user32:USER32.dll
 0004:00000100       __NULL_IMPORT_DESCRIPTOR   00407100     kernel32:KERNEL32.dll

 entry point at        0001:000000b9

 Static symbols

 0000:ffff6000       .debug$S                   00400000     kernel32:KERNEL32.dll
 0000:ffff6000       .debug$S                   00400000     kernel32:KERNEL32.dll
 0000:ffff6000       .debug$S                   00400000     kernel32:KERNEL32.dll
 0000:ffff6000       .debug$S                   00400000     kernel32:KERNEL32.dll
 0000:ffff6000       .debug$S                   00400000     kernel32:KERNEL32.dll
 0000:ffff6000       .debug$S                   00400000     kernel32:KERNEL32.dll
 0000:ffff6000       .debug$S                   00400000     kernel32:KERNEL32.dll
 0000:ffff6000       .debug$S                   00400000     kernel32:KERNEL32.dll
 0000:ffff6000       .debug$S                   00400000     kernel32:KERNEL32.dll
 0000:ffff6000       .debug$S                   00400000     kernel32:KERNEL32.dll
 0000:ffff6000       .debug$S                   00400000     kernel32:KERNEL32.dll
 0000:ffff6000       .debug$S                   00400000     kernel32:KERNEL32.dll
 0000:ffff6000       .debug$S                   00400000     kernel32:KERNEL32.dll
 0000:ffff6000       .debug$S                   00400000     kernel32:KERNEL32.dll
 0000:ffff6000       .debug$S                   00400000     kernel32:KERNEL32.dll
 0000:ffff6000       .debug$S                   00400000     kernel32:KERNEL32.dll
 0000:ffff6000       .debug$S                   00400000     kernel32:KERNEL32.dll
 0000:ffff6000       .debug$S                   00400000     kernel32:KERNEL32.dll
 0000:ffff6000       .debug$S                   00400000     kernel32:KERNEL32.dll
 0000:ffff6000       .debug$S                   00400000     kernel32:KERNEL32.dll
 0000:ffff6000       .debug$S                   00400000     kernel32:KERNEL32.dll
 0000:ffff6000       .debug$S                   00400000     kernel32:KERNEL32.dll
 0000:ffff6000       .debug$S                   00400000     kernel32:KERNEL32.dll
 0000:ffff6000       .debug$S                   00400000     kernel32:KERNEL32.dll
 0000:ffff6000       .debug$S                   00400000     kernel32:KERNEL32.dll
 0000:ffff6000       .debug$S                   00400000     kernel32:KERNEL32.dll
 0000:ffff6000       .debug$S                   00400000     user32:USER32.dll
 0001:00000624       _scan_for_quote@0          00401624 f   Irvine32:Irvine32.obj
 0001:0000074b       _Initialize@0              0040174b f   Irvine32:Irvine32.obj
 0001:00000b4f       _ReadKeyTranslate@0        00401b4f f   Irvine32:Irvine32.obj
 0001:000011c5       _AsciiDigit@0              004021c5 f   Irvine32:Irvine32.obj
 0001:000011ce       _HexByte@0                 004021ce f   Irvine32:Irvine32.obj
 0001:00002690       $$000000                   00403690     4108056041날창ㅵ-hw5.obj
 0003:00000000       input1                     00406000     4108056041날창ㅵ-hw5.obj
 0003:0000000e       input2                     0040600e     4108056041날창ㅵ-hw5.obj
 0003:00000015       output1                    00406015     4108056041날창ㅵ-hw5.obj
 0003:00000024       output2                    00406024     4108056041날창ㅵ-hw5.obj
 0003:00000031       buffer                     00406031     4108056041날창ㅵ-hw5.obj
 0003:000000b2       bufsize                    004060b2     4108056041날창ㅵ-hw5.obj
 0003:000000b6       key                        004060b6     4108056041날창ㅵ-hw5.obj
 0003:00000137       keysize                    00406137     4108056041날창ㅵ-hw5.obj
 0003:00000180       InitFlag                   00406180     Irvine32:Irvine32.obj
 0003:00000181       xtable                     00406181     Irvine32:Irvine32.obj
 0003:00000191       blanks                     00406191     Irvine32:Irvine32.obj
 0003:00000391       attribs                    00406391     Irvine32:Irvine32.obj
 0003:00000791       lineLength                 00406791     Irvine32:Irvine32.obj
 0003:00000795       cursorLoc                  00406795     Irvine32:Irvine32.obj
 0003:00000799       count                      00406799     Irvine32:Irvine32.obj
 0003:0000079d       ??0002                     0040679d     Irvine32:Irvine32.obj
 0003:000007a2       dumpPrompt                 004067a2     Irvine32:Irvine32.obj
 0003:000007b4       dashLine                   004067b4     Irvine32:Irvine32.obj
 0003:000007d6       ??0003                     004067d6     Irvine32:Irvine32.obj
 0003:000007d9       ??0004                     004067d9     Irvine32:Irvine32.obj
 0003:000007db       ??0005                     004067db     Irvine32:Irvine32.obj
 0003:000007dd       saveIP                     004067dd     Irvine32:Irvine32.obj
 0003:000007e1       saveESP                    004067e1     Irvine32:Irvine32.obj
 0003:000007e5       ??0006                     004067e5     Irvine32:Irvine32.obj
 0003:000007ec       ??0007                     004067ec     Irvine32:Irvine32.obj
 0003:000007f3       ??0008                     004067f3     Irvine32:Irvine32.obj
 0003:000007fa       ??0009                     004067fa     Irvine32:Irvine32.obj
 0003:00000801       ??000A                     00406801     Irvine32:Irvine32.obj
 0003:00000808       ??000B                     00406808     Irvine32:Irvine32.obj
 0003:0000080f       ??000C                     0040680f     Irvine32:Irvine32.obj
 0003:00000816       ??000D                     00406816     Irvine32:Irvine32.obj
 0003:0000081d       ??000E                     0040681d     Irvine32:Irvine32.obj
 0003:00000824       ??000F                     00406824     Irvine32:Irvine32.obj
 0003:0000082b       ??0010                     0040682b     Irvine32:Irvine32.obj
 0003:00000830       ??0011                     00406830     Irvine32:Irvine32.obj
 0003:00000832       ??0013                     00406832     Irvine32:Irvine32.obj
 0003:00000837       ??0014                     00406837     Irvine32:Irvine32.obj
 0003:00000839       ??0016                     00406839     Irvine32:Irvine32.obj
 0003:0000083e       ??0017                     0040683e     Irvine32:Irvine32.obj
 0003:00000840       ??0019                     00406840     Irvine32:Irvine32.obj
 0003:00000845       ??001A                     00406845     Irvine32:Irvine32.obj
 0003:00000847       ??001C                     00406847     Irvine32:Irvine32.obj
 0003:0000084c       ??001D                     0040684c     Irvine32:Irvine32.obj
 0003:0000084e       ??001F                     0040684e     Irvine32:Irvine32.obj
 0003:00000853       ??0020                     00406853     Irvine32:Irvine32.obj
 0003:00000855       _cursorPosition            00406855     Irvine32:Irvine32.obj
 0003:00000859       @zx02abc_def_caption       00406859     Irvine32:Irvine32.obj
 0003:0000085b       @zq02abc_def_caption       0040685b     Irvine32:Irvine32.obj
 0003:0000085d       overflow_msgL              0040685d     Irvine32:Irvine32.obj
 0003:00000878       invalid_msgL               00406878     Irvine32:Irvine32.obj
 0003:0000088b       seed                       0040688b     Irvine32:Irvine32.obj
 0003:0000088f       xbtable                    0040688f     Irvine32:Irvine32.obj
 0003:000008a6       numVal                     004068a6     Irvine32:Irvine32.obj
 0003:000008aa       charVal                    004068aa     Irvine32:Irvine32.obj
 0003:000008ab       evBuffer                   004068ab     Irvine32:Irvine32.obj
 0003:000008bf       evRepeat                   004068bf     Irvine32:Irvine32.obj
 0003:000008c1       SpecialCases               004068c1     Irvine32:Irvine32.obj
 0003:00000902       _$$temp                    00406902     Irvine32:Irvine32.obj
 0003:00000906       waitmsgstr                 00406906     Irvine32:Irvine32.obj
 0003:00000923       bufferL                    00406923     Irvine32:Irvine32.obj
 0003:00000930       bufferLHB                  00406930     Irvine32:Irvine32.obj
 0003:00000939       buffer_B                   00406939     Irvine32:Irvine32.obj
 0003:00000946       neg_flag                   00406946     Irvine32:Irvine32.obj
 0003:00000947       LblStack                   00406947     Irvine32:Irvine32.obj
 0003:00000954       LblFor                     00406954     Irvine32:Irvine32.obj
 0003:00000959       LblEbp                     00406959     Irvine32:Irvine32.obj
 0003:0000095f       LblParam                   0040695f     Irvine32:Irvine32.obj
 0003:0000096c       LblEbpPtr                  0040696c     Irvine32:Irvine32.obj
 0003:00000982       LblSaved                   00406982     Irvine32:Irvine32.obj
 0003:00000994       LblLocal                   00406994     Irvine32:Irvine32.obj
 0003:000009a6       LblReturn                  004069a6     Irvine32:Irvine32.obj
 0003:000009b8       LblEsp                     004069b8     Irvine32:Irvine32.obj
 0003:000009c4       BadStackFrameMsg           004069c4     Irvine32:Irvine32.obj
 0003:000009df       NoName                     004069df     Irvine32:Irvine32.obj
 0003:000009e0       WriteToFile_1              004069e0     Irvine32:Irvine32.obj
 0003:000009e4       WriteWindowsMsg_1          004069e4     Irvine32:Irvine32.obj
 0003:000009eb       WriteWindowsMsg_2          004069eb     Irvine32:Irvine32.obj
 0003:000009ee       pErrorMsg                  004069ee     Irvine32:Irvine32.obj
 0003:000009f2       messageId                  004069f2     Irvine32:Irvine32.obj
 0003:00000cb0       consoleInHandle            00406cb0     Irvine32:Irvine32.obj
 0003:00000cb4       consoleOutHandle           00406cb4     Irvine32:Irvine32.obj
 0003:00000cb8       bytesWritten               00406cb8     Irvine32:Irvine32.obj
 0003:00000cbc       eflags                     00406cbc     Irvine32:Irvine32.obj
 0003:00000cc0       digitBuffer                00406cc0     Irvine32:Irvine32.obj
 0003:00000d11       buffer                     00406d11     Irvine32:Irvine32.obj
 0003:00000f11       bytesRead                  00406f11     Irvine32:Irvine32.obj
 0003:00000f15       sysTime                    00406f15     Irvine32:Irvine32.obj
 0004:000003d6       .idata$6                   004073d6     kernel32:KERNEL32.dll
 0004:000003f2       .idata$6                   004073f2     user32:USER32.dll
 0005:00000170       $R000000                   00408170     * linker generated manifest res *
